; Function Attrs: mustprogress nofree norecurse nosync nounwind null_pointer_is_valid sspstrong willreturn memory(argmem: read) uwtable
define internal noundef nonnull ptr @ipv6_endpoint_get_filter_type(ptr noundef readonly captures(none) %0, i32 noundef %1) #10 {
  %3 = icmp eq i32 %1, 2
  br i1 %3, label %4, label %8

4:                                                ; preds = %2
  %5 = getelementptr inbounds nuw i8, ptr %0, i64 8
  %6 = load i32, ptr %5, align 8
  %7 = icmp eq i32 %6, 3
  br i1 %7, label %9, label %8

8:                                                ; preds = %4, %2
  br label %9

9:                                                ; preds = %4, %8
  %.0 = phi ptr [ @.str.891, %8 ], [ @.str.140, %4 ]
  ret ptr %.0
}